; Function Attrs: mustprogress uwtable
define internal void @"_ZNSt17_Function_handlerIFN7rocksdb6StatusEvEZNS0_18WriteUnpreparedTxn6DeleteEPNS0_18ColumnFamilyHandleERKNS0_5SliceEbE3$_0E9_M_invokeERKSt9_Any_data"(ptr dead_on_unwind noalias writable sret(%"class.rocksdb::Status") align 8 %0, ptr noundef nonnull readonly align 8 captures(none) dereferenceable(16) %1) #4 align 2 {
  %.val = load ptr, ptr %1, align 8, !tbaa !336
  %3 = load ptr, ptr %.val, align 8, !tbaa !749, !noalias !751
  %4 = getelementptr inbounds nuw i8, ptr %.val, i64 8
  %5 = load ptr, ptr %4, align 8, !tbaa !758, !noalias !751
  %6 = load ptr, ptr %5, align 8, !tbaa !327, !noalias !751
  %7 = getelementptr inbounds nuw i8, ptr %.val, i64 16
  %8 = load ptr, ptr %7, align 8, !tbaa !759, !noalias !751
  %9 = getelementptr inbounds nuw i8, ptr %.val, i64 24
  %10 = load ptr, ptr %9, align 8, !tbaa !760, !noalias !751
  %11 = load i8, ptr %10, align 1, !tbaa !33, !range !37, !noalias !751, !noundef !38
  %12 = trunc nuw i8 %11 to i1
  tail call void @_ZN7rocksdb19TransactionBaseImpl6DeleteEPNS_18ColumnFamilyHandleERKNS_5SliceEb(ptr dead_on_unwind writable sret(%"class.rocksdb::Status") align 8 %0, ptr noundef nonnull align 8 dereferenceable(400) %3, ptr noundef %6, ptr noundef nonnull align 8 dereferenceable(16) %8, i1 noundef zeroext %12)
  ret void
}